target datalayout = "e-m:e-p270:32:32-p271:32:32-p272:64:64-i64:64-i128:128-f80:128-n8:16:32:64-S128"
target triple = "x86_64-pc-linux-gnu"

@.str.2 = private unnamed_addr constant [103 x i8] c"generated/home/dtcxzyw/WorkSpace/Projects/compilers/llvm-opt-benchmark/bench/hdf5/hdf5/src/H5FScache.c\00", align 1
@H5E_FSPACE_g = external global i64, align 8
@__func__.H5FS__cache_hdr_notify = private unnamed_addr constant [23 x i8] c"H5FS__cache_hdr_notify\00", align 1
@H5E_CANTFLUSH_g = external global i64, align 8
@.str.18 = private unnamed_addr constant [37 x i8] c"unable to mark FSM ring as unsettled\00", align 1
@H5E_BADVALUE_g = external global i64, align 8
@.str.19 = private unnamed_addr constant [35 x i8] c"unknown action from metadata cache\00", align 1

; Function Attrs: nounwind uwtable
define internal i32 @H5FS__cache_hdr_notify(i32 noundef %0, ptr noundef %1) #0 {
  %3 = alloca i32, align 4
  %4 = alloca ptr, align 8
  %5 = alloca ptr, align 8
  %6 = alloca i32, align 4
  %7 = alloca i8, align 1
  store i32 %0, ptr %3, align 4
  store ptr %1, ptr %4, align 8
  %8 = load ptr, ptr %4, align 8
  store ptr %8, ptr %5, align 8
  store i32 0, ptr %6, align 4
  store i8 0, ptr %7, align 1
  %9 = load i32, ptr %3, align 4
  switch i32 %9, label %32 [
    i32 0, label %10
    i32 1, label %10
    i32 2, label %10
    i32 4, label %11
    i32 5, label %31
    i32 6, label %31
    i32 7, label %31
    i32 8, label %31
    i32 9, label %31
    i32 3, label %31
  ]

10:                                               ; preds = %2, %2, %2
  br label %47

11:                                               ; preds = %2
  %12 = load ptr, ptr %5, align 8
  %13 = call i32 @H5AC_unsettle_entry_ring(ptr noundef %12)
  %14 = icmp slt i32 %13, 0
  br i1 %14, label %15, label %30

15:                                               ; preds = %11
  br label %16

16:                                               ; preds = %15
  br label %17

17:                                               ; preds = %16
  br label %18

18:                                               ; preds = %17
  %19 = load i64, ptr @H5E_FSPACE_g, align 8
  %20 = load i64, ptr @H5E_CANTFLUSH_g, align 8
  %21 = call i32 (ptr, ptr, i32, i64, i64, ptr, ...) @H5E_printf_stack(ptr noundef @.str.2, ptr noundef @__func__.H5FS__cache_hdr_notify, i32 noundef 784, i64 noundef %19, i64 noundef %20, ptr noundef @.str.18)
  br label %22

22:                                               ; preds = %18
  store i8 1, ptr %7, align 1
  %23 = load i8, ptr %7, align 1
  %24 = trunc i8 %23 to i1
  %25 = zext i1 %24 to i8
  store i8 %25, ptr %7, align 1
  br label %26

26:                                               ; preds = %22
  br label %27

27:                                               ; preds = %26
  store i32 -1, ptr %6, align 4
  br label %48

28:                                               ; No predecessors!
  br label %29

29:                                               ; preds = %28
  br label %30

30:                                               ; preds = %29, %11
  br label %47

31:                                               ; preds = %2, %2, %2, %2, %2, %2
  br label %47

32:                                               ; preds = %2
  br label %33

33:                                               ; preds = %32
  br label %34

34:                                               ; preds = %33
  br label %35

35:                                               ; preds = %34
  %36 = load i64, ptr @H5E_FSPACE_g, align 8
  %37 = load i64, ptr @H5E_BADVALUE_g, align 8
  %38 = call i32 (ptr, ptr, i32, i64, i64, ptr, ...) @H5E_printf_stack(ptr noundef @.str.2, ptr noundef @__func__.H5FS__cache_hdr_notify, i32 noundef 798, i64 noundef %36, i64 noundef %37, ptr noundef @.str.19)
  br label %39

39:                                               ; preds = %35
  store i8 1, ptr %7, align 1
  %40 = load i8, ptr %7, align 1
  %41 = trunc i8 %40 to i1
  %42 = zext i1 %41 to i8
  store i8 %42, ptr %7, align 1
  br label %43

43:                                               ; preds = %39
  br label %44

44:                                               ; preds = %43
  store i32 -1, ptr %6, align 4
  br label %48

45:                                               ; No predecessors!
  br label %46

46:                                               ; preds = %45
  br label %47

47:                                               ; preds = %46, %31, %30, %10
  br label %48

48:                                               ; preds = %47, %44, %27
  %49 = load i32, ptr %6, align 4
  ret i32 %49
}