; Function Attrs: nounwind uwtable
define internal range(i32 -1, 1) i32 @H5FS__cache_hdr_notify(i32 noundef %0, ptr noundef %1) #0 {
  switch i32 %0, label %10 [
    i32 0, label %14
    i32 1, label %14
    i32 2, label %14
    i32 4, label %3
    i32 5, label %14
    i32 6, label %14
    i32 7, label %14
    i32 8, label %14
    i32 9, label %14
    i32 3, label %14
  ]

3:                                                ; preds = %2
  %4 = tail call i32 @H5AC_unsettle_entry_ring(ptr noundef %1) #7
  %5 = icmp slt i32 %4, 0
  br i1 %5, label %6, label %14

6:                                                ; preds = %3
  %7 = load i64, ptr @H5E_FSPACE_g, align 8
  %8 = load i64, ptr @H5E_CANTFLUSH_g, align 8
  %9 = tail call i32 (ptr, ptr, i32, i64, i64, ptr, ...) @H5E_printf_stack(ptr noundef nonnull @.str.2, ptr noundef nonnull @__func__.H5FS__cache_hdr_notify, i32 noundef 784, i64 noundef %7, i64 noundef %8, ptr noundef nonnull @.str.18) #7
  br label %14

10:                                               ; preds = %2
  %11 = load i64, ptr @H5E_FSPACE_g, align 8
  %12 = load i64, ptr @H5E_BADVALUE_g, align 8
  %13 = tail call i32 (ptr, ptr, i32, i64, i64, ptr, ...) @H5E_printf_stack(ptr noundef nonnull @.str.2, ptr noundef nonnull @__func__.H5FS__cache_hdr_notify, i32 noundef 798, i64 noundef %11, i64 noundef %12, ptr noundef nonnull @.str.19) #7
  br label %14

14:                                               ; preds = %2, %2, %2, %3, %2, %2, %2, %2, %2, %2, %10, %6
  %.0 = phi i32 [ -1, %10 ], [ -1, %6 ], [ 0, %3 ], [ 0, %2 ], [ 0, %2 ], [ 0, %2 ], [ 0, %2 ], [ 0, %2 ], [ 0, %2 ], [ 0, %2 ], [ 0, %2 ], [ 0, %2 ]
  ret i32 %.0
}